target datalayout = "e-m:e-p270:32:32-p271:32:32-p272:64:64-i64:64-i128:128-f80:128-n8:16:32:64-S128"
target triple = "x86_64-pc-linux-gnu"

%union.t_iparams = type { %struct.anon.21 }
%struct.anon.21 = type { [3 x float], [3 x float], [3 x float], [3 x float] }
%struct.anon.0 = type { float, float, float, float }

; Function Attrs: mustprogress nounwind uwtable
define internal noundef double @_ZN3gmxL7invsqrtEd(double noundef %0) #2 {
  %2 = alloca double, align 8
  store double %0, ptr %2, align 8
  %3 = load double, ptr %2, align 8
  %4 = call double @sqrt(double noundef %3) #4
  %5 = fdiv double 1.000000e+00, %4
  ret double %5
}

; Function Attrs: mustprogress nounwind uwtable
define internal noundef float @_ZL5iprodPKfS0_(ptr noundef %0, ptr noundef %1) #2 {
  %3 = alloca ptr, align 8
  %4 = alloca ptr, align 8
  store ptr %0, ptr %3, align 8
  store ptr %1, ptr %4, align 8
  %5 = load ptr, ptr %3, align 8
  %6 = getelementptr inbounds float, ptr %5, i64 0
  %7 = load float, ptr %6, align 4
  %8 = load ptr, ptr %4, align 8
  %9 = getelementptr inbounds float, ptr %8, i64 0
  %10 = load float, ptr %9, align 4
  %11 = load ptr, ptr %3, align 8
  %12 = getelementptr inbounds float, ptr %11, i64 1
  %13 = load float, ptr %12, align 4
  %14 = load ptr, ptr %4, align 8
  %15 = getelementptr inbounds float, ptr %14, i64 1
  %16 = load float, ptr %15, align 4
  %17 = fmul float %13, %16
  %18 = call float @llvm.fmuladd.f32(float %7, float %10, float %17)
  %19 = load ptr, ptr %3, align 8
  %20 = getelementptr inbounds float, ptr %19, i64 2
  %21 = load float, ptr %20, align 4
  %22 = load ptr, ptr %4, align 8
  %23 = getelementptr inbounds float, ptr %22, i64 2
  %24 = load float, ptr %23, align 4
  %25 = call float @llvm.fmuladd.f32(float %21, float %24, float %18)
  ret float %25
}

; Function Attrs: mustprogress uwtable
define void @_Z26compute_factors_restanglesiPK9t_iparamsPfS2_PdS3_S3_S2_(i32 noundef %0, ptr noundef %1, ptr noundef %2, ptr noundef %3, ptr noundef %4, ptr noundef %5, ptr noundef %6, ptr noundef %7) #0 {
  %9 = alloca i32, align 4
  %10 = alloca ptr, align 8
  %11 = alloca ptr, align 8
  %12 = alloca ptr, align 8
  %13 = alloca ptr, align 8
  %14 = alloca ptr, align 8
  %15 = alloca ptr, align 8
  %16 = alloca ptr, align 8
  %17 = alloca double, align 8
  %18 = alloca double, align 8
  %19 = alloca double, align 8
  %20 = alloca double, align 8
  %21 = alloca double, align 8
  %22 = alloca double, align 8
  %23 = alloca double, align 8
  %24 = alloca double, align 8
  %25 = alloca double, align 8
  %26 = alloca double, align 8
  %27 = alloca double, align 8
  store i32 %0, ptr %9, align 4
  store ptr %1, ptr %10, align 8
  store ptr %2, ptr %11, align 8
  store ptr %3, ptr %12, align 8
  store ptr %4, ptr %13, align 8
  store ptr %5, ptr %14, align 8
  store ptr %6, ptr %15, align 8
  store ptr %7, ptr %16, align 8
  %28 = load ptr, ptr %10, align 8
  %29 = load i32, ptr %9, align 4
  %30 = sext i32 %29 to i64
  %31 = getelementptr inbounds %union.t_iparams, ptr %28, i64 %30
  %32 = getelementptr inbounds %struct.anon.0, ptr %31, i32 0, i32 1
  %33 = load float, ptr %32, align 4
  %34 = fpext float %33 to double
  store double %34, ptr %18, align 8
  %35 = load ptr, ptr %10, align 8
  %36 = load i32, ptr %9, align 4
  %37 = sext i32 %36 to i64
  %38 = getelementptr inbounds %union.t_iparams, ptr %35, i64 %37
  %39 = getelementptr inbounds %struct.anon.0, ptr %38, i32 0, i32 0
  %40 = load float, ptr %39, align 4
  %41 = fpext float %40 to double
  %42 = fmul double %41, 0x3F91DF46A2529D39
  store double %42, ptr %17, align 8
  %43 = load double, ptr %17, align 8
  %44 = fsub double 0x400921FB54442D18, %43
  store double %44, ptr %17, align 8
  %45 = load double, ptr %17, align 8
  %46 = call double @cos(double noundef %45) #4
  store double %46, ptr %19, align 8
  %47 = load ptr, ptr %11, align 8
  %48 = load ptr, ptr %11, align 8
  %49 = call noundef float @_ZL5iprodPKfS0_(ptr noundef %47, ptr noundef %48)
  %50 = fpext float %49 to double
  store double %50, ptr %20, align 8
  %51 = load ptr, ptr %11, align 8
  %52 = load ptr, ptr %12, align 8
  %53 = call noundef float @_ZL5iprodPKfS0_(ptr noundef %51, ptr noundef %52)
  %54 = fpext float %53 to double
  store double %54, ptr %21, align 8
  %55 = load ptr, ptr %12, align 8
  %56 = load ptr, ptr %12, align 8
  %57 = call noundef float @_ZL5iprodPKfS0_(ptr noundef %55, ptr noundef %56)
  %58 = fpext float %57 to double
  store double %58, ptr %22, align 8
  %59 = load double, ptr %20, align 8
  %60 = load double, ptr %22, align 8
  %61 = fmul double %59, %60
  %62 = call noundef double @_ZN3gmxL7invsqrtEd(double noundef %61)
  store double %62, ptr %23, align 8
  %63 = load double, ptr %21, align 8
  %64 = load double, ptr %23, align 8
  %65 = fmul double %63, %64
  store double %65, ptr %25, align 8
  %66 = load double, ptr %25, align 8
  %67 = load double, ptr %25, align 8
  %68 = fneg double %66
  %69 = call double @llvm.fmuladd.f64(double %68, double %67, double 1.000000e+00)
  store double %69, ptr %26, align 8
  %70 = load double, ptr %21, align 8
  %71 = load double, ptr %20, align 8
  %72 = fdiv double %70, %71
  %73 = load ptr, ptr %14, align 8
  store double %72, ptr %73, align 8
  %74 = load double, ptr %21, align 8
  %75 = load double, ptr %22, align 8
  %76 = fdiv double %74, %75
  %77 = load ptr, ptr %15, align 8
  store double %76, ptr %77, align 8
  %78 = load double, ptr %25, align 8
  %79 = load double, ptr %19, align 8
  %80 = fsub double %78, %79
  store double %80, ptr %24, align 8
  %81 = load double, ptr %25, align 8
  %82 = load double, ptr %19, align 8
  %83 = fneg double %81
  %84 = call double @llvm.fmuladd.f64(double %83, double %82, double 1.000000e+00)
  store double %84, ptr %27, align 8
  %85 = load double, ptr %18, align 8
  %86 = fneg double %85
  %87 = load double, ptr %24, align 8
  %88 = fmul double %86, %87
  %89 = load double, ptr %23, align 8
  %90 = fmul double %88, %89
  %91 = load double, ptr %27, align 8
  %92 = fmul double %90, %91
  %93 = load double, ptr %26, align 8
  %94 = load double, ptr %26, align 8
  %95 = fmul double %93, %94
  %96 = fdiv double %92, %95
  %97 = load ptr, ptr %13, align 8
  store double %96, ptr %97, align 8
  %98 = load double, ptr %18, align 8
  %99 = fmul double %98, 5.000000e-01
  %100 = load double, ptr %24, align 8
  %101 = fmul double %99, %100
  %102 = load double, ptr %24, align 8
  %103 = fmul double %101, %102
  %104 = load double, ptr %26, align 8
  %105 = fdiv double %103, %104
  %106 = fptrunc double %105 to float
  %107 = load ptr, ptr %16, align 8
  store float %106, ptr %107, align 4
  ret void
}