; Function Attrs: mustprogress nofree nounwind willreturn memory(write, argmem: readwrite) uwtable
define void @_Z26compute_factors_restanglesiPK9t_iparamsPfS2_PdS3_S3_S2_(i32 noundef %0, ptr nocapture noundef readonly %1, ptr nocapture noundef readonly %2, ptr nocapture noundef readonly %3, ptr nocapture noundef writeonly %4, ptr nocapture noundef writeonly %5, ptr nocapture noundef writeonly %6, ptr nocapture noundef writeonly %7) local_unnamed_addr #0 {
  %9 = sext i32 %0 to i64
  %10 = getelementptr inbounds %union.t_iparams, ptr %1, i64 %9
  %11 = getelementptr inbounds i8, ptr %10, i64 4
  %12 = load float, ptr %11, align 4
  %13 = fpext float %12 to double
  %14 = load float, ptr %10, align 4
  %15 = fpext float %14 to double
  %16 = fmul double %15, 0x3F91DF46A2529D39
  %17 = fsub double 0x400921FB54442D18, %16
  %18 = tail call double @cos(double noundef %17) #5
  %19 = load float, ptr %2, align 4
  %20 = getelementptr inbounds i8, ptr %2, i64 4
  %21 = load float, ptr %20, align 4
  %22 = fmul float %21, %21
  %23 = tail call float @llvm.fmuladd.f32(float %19, float %19, float %22)
  %24 = getelementptr inbounds i8, ptr %2, i64 8
  %25 = load float, ptr %24, align 4
  %26 = tail call noundef float @llvm.fmuladd.f32(float %25, float %25, float %23)
  %27 = fpext float %26 to double
  %28 = load float, ptr %3, align 4
  %29 = getelementptr inbounds i8, ptr %3, i64 4
  %30 = load float, ptr %29, align 4
  %31 = fmul float %21, %30
  %32 = tail call float @llvm.fmuladd.f32(float %19, float %28, float %31)
  %33 = getelementptr inbounds i8, ptr %3, i64 8
  %34 = load float, ptr %33, align 4
  %35 = tail call noundef float @llvm.fmuladd.f32(float %25, float %34, float %32)
  %36 = fpext float %35 to double
  %37 = fmul float %30, %30
  %38 = tail call float @llvm.fmuladd.f32(float %28, float %28, float %37)
  %39 = tail call noundef float @llvm.fmuladd.f32(float %34, float %34, float %38)
  %40 = fpext float %39 to double
  %41 = fmul double %27, %40
  %42 = tail call double @sqrt(double noundef %41) #5
  %43 = fdiv double 1.000000e+00, %42
  %44 = fmul double %43, %36
  %45 = fneg double %44
  %46 = tail call double @llvm.fmuladd.f64(double %45, double %44, double 1.000000e+00)
  %47 = fdiv double %36, %27
  store double %47, ptr %5, align 8
  %48 = fdiv double %36, %40
  store double %48, ptr %6, align 8
  %49 = fsub double %44, %18
  %50 = tail call double @llvm.fmuladd.f64(double %45, double %18, double 1.000000e+00)
  %51 = fneg double %13
  %52 = fmul double %49, %51
  %53 = fmul double %43, %52
  %54 = fmul double %50, %53
  %55 = fmul double %46, %46
  %56 = fdiv double %54, %55
  store double %56, ptr %4, align 8
  %57 = fmul double %13, 5.000000e-01
  %58 = fmul double %57, %49
  %59 = fmul double %49, %58
  %60 = fdiv double %59, %46
  %61 = fptrunc double %60 to float
  store float %61, ptr %7, align 4
  ret void
}